; Function Attrs: null_pointer_is_valid sspstrong uwtable
define internal i32 @dissect_s1ap_CauseNas(ptr noundef %0, i32 noundef %1, ptr noundef %2, ptr noundef %3, i32 noundef %4) #0 {
  %6 = alloca i32, align 4
  call void @llvm.lifetime.start.p0(i64 4, ptr nonnull %6) #8
  %7 = call i32 @dissect_per_enumerated(ptr noundef %0, i32 noundef %1, ptr noundef %2, ptr noundef %3, i32 noundef %4, i32 noundef 4, ptr noundef nonnull %6, i1 noundef zeroext true, i32 noundef 3, ptr noundef null)
  %8 = getelementptr inbounds nuw i8, ptr %2, i64 16
  %9 = load ptr, ptr %8, align 8
  %10 = getelementptr inbounds nuw i8, ptr %9, i64 8
  %11 = load ptr, ptr %10, align 8
  %12 = load i32, ptr %6, align 4
  %13 = call ptr @val_to_str_const(i32 noundef %12, ptr noundef nonnull @s1ap_CauseNas_vals, ptr noundef nonnull @.str.2082)
  call void (ptr, i32, ptr, ...) @col_append_fstr(ptr noundef %11, i32 noundef 25, ptr noundef nonnull @.str.2084, ptr noundef %13)
  call void @llvm.lifetime.end.p0(i64 4, ptr nonnull %6) #8
  ret i32 %7
}